(iTodoList
TodoList
p0
(dp1
S'todolist'
p2
(lp3
(iTodoList
Todo
p4
(dp5
S'priority'
p6
S'Randomtxt'
p7
sS'todo'
p8
S'Randomtxt'
p9
sba(iTodoList
Todo
p10
(dp11
g6
S'Randomtxt'
p12
sg8
S'Randomtxt'
p13
sbasS'listName'
p14
S'Randomtxt'
p15
sb.