(iTodoList
TodoList
p0
(dp1
S'todolist'
p2
(lp3
(iTodoList
Todo
p4
(dp5
S'priority'
p6
S'8'
p7
sS'todo'
p8
S'random1'
p9
sba(iTodoList
Todo
p10
(dp11
g6
S'4'
p12
sg8
S'random2'
p13
sba(iTodoList
Todo
p14
(dp15
g6
S'3'
p16
sg8
S'random3'
p17
sbasS'listName'
p18
S'samplelist'
p19
sb.